Certificate:
    Data:
        Version: 3 (0x2)
        Serial Number:
            26:77:42:30:92:c0:b4:42:78:bb:13:cb:b7:b0:5d:97:06:21:4d:e9
        Signature Algorithm: sha256WithRSAEncryption
        Issuer: CN = QUIC Server Root CA
        Validity
            Not Before: Feb  4 01:44:27 2020 GMT
            Not After : Feb  7 01:44:27 2020 GMT
        Subject: CN = QUIC Server Root CA
        Subject Public Key Info:
            Public Key Algorithm: rsaEncryption
                RSA Public-Key: (2048 bit)
                Modulus:
                    00:cc:4a:07:37:69:6b:8a:fe:7b:56:3d:4b:87:6c:
                    4f:bc:9c:64:09:d1:91:bf:e1:d1:31:b4:3f:9e:31:
                    e2:00:ca:55:fb:fa:c5:ce:2c:d1:1a:59:c2:26:24:
                    a3:f7:ae:de:36:af:10:13:73:7b:4a:a3:43:23:5e:
                    b5:94:de:38:53:89:78:d6:97:d4:05:70:9d:03:f6:
                    db:83:83:d5:e9:11:c3:76:fc:1f:46:85:ed:9f:fc:
                    09:2c:88:74:b0:d2:87:8d:5d:23:5e:fb:92:08:76:
                    08:ee:3b:66:45:07:74:b3:7d:f6:fe:f8:24:c5:29:
                    01:e1:df:59:d1:0f:1a:00:fc:5a:d0:62:0d:7e:00:
                    44:12:65:15:37:aa:14:1a:b7:43:23:15:1f:45:ff:
                    a3:d2:b6:bf:81:cd:d5:76:88:a9:88:15:e4:e2:18:
                    cf:77:68:d0:16:3f:92:2c:a8:91:1c:0e:ec:d3:d6:
                    b9:22:c2:69:12:11:7a:33:2a:98:bb:6e:7b:af:45:
                    1b:86:9d:2e:6c:0a:c6:2a:3f:0a:90:fc:15:05:dc:
                    5e:f0:46:04:1b:b4:f0:cd:5e:0c:90:a3:24:1c:5c:
                    f2:b4:f5:be:7a:2f:34:c1:3e:df:86:e4:dc:04:c8:
                    b7:5b:c2:20:95:5d:02:75:a6:45:9c:d9:de:ad:e4:
                    df:c7
                Exponent: 65537 (0x10001)
        X509v3 extensions:
            X509v3 Basic Constraints: critical
                CA:TRUE
            X509v3 Subject Key Identifier: 
                B4:B8:A6:93:62:10:82:60:DD:2A:A2:1E:98:D9:8D:64:4E:01:C2:10
            X509v3 Key Usage: critical
                Certificate Sign, CRL Sign
    Signature Algorithm: sha256WithRSAEncryption
         08:30:9d:d7:1a:a1:6f:5c:f8:a8:15:41:48:17:c8:83:57:ec:
         80:75:22:78:75:04:b8:4d:fb:c9:87:51:b1:5f:23:e4:bb:a4:
         a1:33:22:fb:3c:3b:cf:bc:5b:df:dc:cd:79:38:b2:1e:5f:f1:
         45:40:78:51:2c:13:a0:05:d7:7e:b6:06:67:86:7a:90:e5:65:
         35:bb:c5:0b:63:51:4e:e4:a0:10:62:ce:d6:56:b9:83:86:58:
         b8:25:04:db:73:a1:95:1e:d4:08:22:ab:dc:b5:8d:c8:c4:2f:
         c0:ce:b9:59:57:bc:d0:5e:ef:82:76:27:1f:c8:43:c0:48:0a:
         e0:b7:fa:d9:3c:e8:80:b7:2f:9b:bb:4a:92:6e:d2:d6:37:6d:
         48:dc:48:f6:ba:67:d7:a6:6d:0e:4f:26:bc:28:9d:0e:c0:18:
         93:7f:a1:ad:0b:81:1a:c3:c0:ac:61:b7:16:4b:f9:b0:dc:83:
         af:89:f0:80:88:20:b0:0b:6a:01:ee:ca:10:8b:66:01:35:9f:
         87:dd:9d:e5:8d:d4:f1:33:65:27:c3:9f:0b:a9:24:13:1d:20:
         03:d2:a3:63:85:56:8e:ca:f3:90:06:ce:69:b0:66:16:a1:3f:
         d7:75:3f:8c:ee:2d:d9:52:76:bf:07:fb:30:58:26:81:5d:e1:
         e6:51:0b:32
-----BEGIN CERTIFICATE-----
MIIDDDCCAfSgAwIBAgIUJndCMJLAtEJ4uxPLt7BdlwYhTekwDQYJKoZIhvcNAQEL
BQAwHjEcMBoGA1UEAwwTUVVJQyBTZXJ2ZXIgUm9vdCBDQTAeFw0yMDAyMDQwMTQ0
MjdaFw0yMDAyMDcwMTQ0MjdaMB4xHDAaBgNVBAMME1FVSUMgU2VydmVyIFJvb3Qg
Q0EwggEiMA0GCSqGSIb3DQEBAQUAA4IBDwAwggEKAoIBAQDMSgc3aWuK/ntWPUuH
bE+8nGQJ0ZG/4dExtD+eMeIAylX7+sXOLNEaWcImJKP3rt42rxATc3tKo0MjXrWU
3jhTiXjWl9QFcJ0D9tuDg9XpEcN2/B9Ghe2f/AksiHSw0oeNXSNe+5IIdgjuO2ZF
B3Szffb++CTFKQHh31nRDxoA/FrQYg1+AEQSZRU3qhQat0MjFR9F/6PStr+BzdV2
iKmIFeTiGM93aNAWP5IsqJEcDuzT1rkiwmkSEXozKpi7bnuvRRuGnS5sCsYqPwqQ
/BUF3F7wRgQbtPDNXgyQoyQcXPK09b56LzTBPt+G5NwEyLdbwiCVXQJ1pkWc2d6t
5N/HAgMBAAGjQjBAMA8GA1UdEwEB/wQFMAMBAf8wHQYDVR0OBBYEFLS4ppNiEIJg
3SqiHpjZjWROAcIQMA4GA1UdDwEB/wQEAwIBBjANBgkqhkiG9w0BAQsFAAOCAQEA
CDCd1xqhb1z4qBVBSBfIg1fsgHUieHUEuE37yYdRsV8j5LukoTMi+zw7z7xb39zN
eTiyHl/xRUB4USwToAXXfrYGZ4Z6kOVlNbvFC2NRTuSgEGLO1la5g4ZYuCUE23Oh
lR7UCCKr3LWNyMQvwM65WVe80F7vgnYnH8hDwEgK4Lf62TzogLcvm7tKkm7S1jdt
SNxI9rpn16ZtDk8mvCidDsAYk3+hrQuBGsPArGG3Fkv5sNyDr4nwgIggsAtqAe7K
EItmATWfh92d5Y3U8TNlJ8OfC6kkEx0gA9KjY4VWjsrzkAbOabBmFqE/13U/jO4t
2VJ2vwf7MFgmgV3h5lELMg==
-----END CERTIFICATE-----
