Certificate:
    Data:
        Version: 3 (0x2)
        Serial Number: 1 (0x1)
        Signature Algorithm: sha256WithRSAEncryption
        Issuer: CN=QUIC Server Root CA
        Validity
            Not Before: Feb  4 01:44:27 2020 GMT
            Not After : Feb  7 01:44:27 2020 GMT
        Subject: C=US, ST=California, L=Mountain View, O=QUIC Server, CN=127.0.0.1
        Subject Public Key Info:
            Public Key Algorithm: rsaEncryption
                RSA Public-Key: (2048 bit)
                Modulus:
                    00:d7:34:49:1a:35:05:96:ab:ec:62:0a:1a:3d:d4:
                    2d:3d:ce:06:ec:f9:c8:79:49:84:3e:79:89:65:31:
                    68:25:87:8c:94:28:a7:ea:9d:f6:7c:77:ab:4f:20:
                    4c:13:43:42:91:3e:5f:70:da:14:36:36:d9:14:c0:
                    c8:12:49:be:ce:8a:6c:eb:a7:11:c6:b5:c5:df:ab:
                    3c:0a:ef:2c:35:b9:c7:fa:08:b2:29:93:e9:4e:b5:
                    ee:07:18:0f:f0:c4:92:2d:f2:76:e2:3b:71:aa:14:
                    2b:19:fd:54:d1:a7:75:fc:d2:19:5c:38:65:02:1e:
                    9d:eb:7c:4e:ea:cc:ca:6c:ef:e4:70:29:cb:11:89:
                    ee:6c:e4:19:53:6a:9d:7c:d0:fd:07:c2:45:f6:8e:
                    c7:93:33:30:3a:e8:42:51:35:1f:f7:4a:ba:e5:6b:
                    db:d0:8c:8e:32:3e:6d:2a:0c:b3:27:d5:dc:4e:aa:
                    7b:53:44:73:a4:40:07:13:5d:58:1b:bc:dd:ff:2a:
                    89:1e:3b:89:25:52:09:d4:9b:75:e5:35:35:2d:b0:
                    ce:8e:89:83:b0:5c:65:60:6a:24:d7:7b:1c:b7:f0:
                    15:87:3e:8e:fe:ec:db:48:5a:84:67:a3:e0:b3:94:
                    ae:aa:fb:9e:b4:90:ad:ae:88:26:8d:bc:de:4e:5e:
                    9c:f5
                Exponent: 65537 (0x10001)
        X509v3 extensions:
            X509v3 Basic Constraints: critical
                CA:FALSE
            X509v3 Subject Key Identifier: 
                2E:A6:22:CB:F1:C8:74:6C:87:48:B5:6C:E8:31:47:88:CF:17:A1:86
            X509v3 Authority Key Identifier: 
                keyid:B4:B8:A6:93:62:10:82:60:DD:2A:A2:1E:98:D9:8D:64:4E:01:C2:10

            X509v3 Extended Key Usage: 
                TLS Web Server Authentication, TLS Web Client Authentication
            X509v3 Subject Alternative Name: 
                DNS:www.example.org, DNS:mail.example.org, DNS:mail.example.com, IP Address:127.0.0.1
    Signature Algorithm: sha256WithRSAEncryption
         42:d7:47:85:96:bc:13:8f:d6:a6:f1:cd:c5:da:e5:57:49:05:
         71:8d:b6:15:0b:94:7f:99:9d:80:67:1c:d3:f6:0c:41:02:c7:
         0c:5c:3e:34:69:47:c7:df:2b:4b:73:87:51:2a:e3:98:01:da:
         07:bf:f1:62:12:86:84:c6:ab:c4:85:73:aa:8c:e6:c7:c0:5b:
         31:c8:32:88:c9:d5:ed:e1:db:98:e2:83:04:dd:4e:52:73:67:
         37:c4:cc:4c:ed:8b:af:81:01:f0:de:d8:7b:73:28:fa:f5:7f:
         20:9f:5e:70:46:c0:5b:f2:ef:17:12:b2:24:c2:b4:1f:37:3e:
         15:9f:1b:28:7b:42:2a:c8:a2:53:dd:c3:f1:2f:55:d9:d2:44:
         5f:68:32:1e:b4:33:22:2a:d6:a0:28:82:a8:b7:30:74:24:5f:
         2e:59:58:b9:22:cc:63:31:67:2c:3d:fd:38:c7:d7:4f:38:89:
         79:d6:f6:00:be:9c:97:08:24:cd:49:e5:77:d3:67:9a:1a:fd:
         69:e9:8a:4f:8f:17:9c:22:73:e7:06:52:ce:08:ae:20:cb:71:
         47:86:6c:c8:2e:5e:41:0c:65:cc:2f:9b:4e:f7:41:87:a3:0c:
         ac:16:06:9e:3b:27:86:b8:14:c0:90:b4:45:99:55:36:b7:fb:
         a4:ed:25:e1
-----BEGIN CERTIFICATE-----
MIIDtDCCApygAwIBAgIBATANBgkqhkiG9w0BAQsFADAeMRwwGgYDVQQDDBNRVUlD
IFNlcnZlciBSb290IENBMB4XDTIwMDIwNDAxNDQyN1oXDTIwMDIwNzAxNDQyN1ow
ZDELMAkGA1UEBhMCVVMxEzARBgNVBAgMCkNhbGlmb3JuaWExFjAUBgNVBAcMDU1v
dW50YWluIFZpZXcxFDASBgNVBAoMC1FVSUMgU2VydmVyMRIwEAYDVQQDDAkxMjcu
MC4wLjEwggEiMA0GCSqGSIb3DQEBAQUAA4IBDwAwggEKAoIBAQDXNEkaNQWWq+xi
Cho91C09zgbs+ch5SYQ+eYllMWglh4yUKKfqnfZ8d6tPIEwTQ0KRPl9w2hQ2NtkU
wMgSSb7OimzrpxHGtcXfqzwK7yw1ucf6CLIpk+lOte4HGA/wxJIt8nbiO3GqFCsZ
/VTRp3X80hlcOGUCHp3rfE7qzMps7+RwKcsRie5s5BlTap180P0HwkX2jseTMzA6
6EJRNR/3Srrla9vQjI4yPm0qDLMn1dxOqntTRHOkQAcTXVgbvN3/KokeO4klUgnU
m3XlNTUtsM6OiYOwXGVgaiTXexy38BWHPo7+7NtIWoRno+CzlK6q+560kK2uiCaN
vN5OXpz1AgMBAAGjgbYwgbMwDAYDVR0TAQH/BAIwADAdBgNVHQ4EFgQULqYiy/HI
dGyHSLVs6DFHiM8XoYYwHwYDVR0jBBgwFoAUtLimk2IQgmDdKqIemNmNZE4BwhAw
HQYDVR0lBBYwFAYIKwYBBQUHAwEGCCsGAQUFBwMCMEQGA1UdEQQ9MDuCD3d3dy5l
eGFtcGxlLm9yZ4IQbWFpbC5leGFtcGxlLm9yZ4IQbWFpbC5leGFtcGxlLmNvbYcE
fwAAATANBgkqhkiG9w0BAQsFAAOCAQEAQtdHhZa8E4/WpvHNxdrlV0kFcY22FQuU
f5mdgGcc0/YMQQLHDFw+NGlHx98rS3OHUSrjmAHaB7/xYhKGhMarxIVzqozmx8Bb
McgyiMnV7eHbmOKDBN1OUnNnN8TMTO2Lr4EB8N7Ye3Mo+vV/IJ9ecEbAW/LvFxKy
JMK0Hzc+FZ8bKHtCKsiiU93D8S9V2dJEX2gyHrQzIirWoCiCqLcwdCRfLllYuSLM
YzFnLD39OMfXTziJedb2AL6clwgkzUnld9Nnmhr9aemKT48XnCJz5wZSzgiuIMtx
R4ZsyC5eQQxlzC+bTvdBh6MMrBYGnjsnhrgUwJC0RZlVNrf7pO0l4Q==
-----END CERTIFICATE-----
